target datalayout = "e-m:e-p270:32:32-p271:32:32-p272:64:64-i64:64-i128:128-f80:128-n8:16:32:64-S128"
target triple = "x86_64-unknown-linux-gnu"

%"class.std::__shared_count" = type { ptr }
%"class.std::_Function_base" = type { %"union.std::_Any_data", ptr }
%"union.std::_Any_data" = type { %"union.std::_Nocopy_types" }
%"union.std::_Nocopy_types" = type { { i64, i64 } }
%"class.std::shared_ptr.33" = type { %"class.std::__shared_ptr.34" }
%"class.std::__shared_ptr.34" = type { ptr, %"class.std::__shared_count" }
%"class.arrow::compute::InputType" = type { i32, %"class.std::shared_ptr.72", %"class.std::shared_ptr.33" }
%"class.std::shared_ptr.72" = type { %"class.std::__shared_ptr.73" }
%"class.std::__shared_ptr.73" = type { ptr, %"class.std::__shared_count" }
%"class.arrow::compute::OutputType" = type { i32, %"class.std::shared_ptr.72", %"class.std::function.105" }
%"class.std::function.105" = type { %"class.std::_Function_base", ptr }
%"class.arrow::compute::KernelSignature" = type { %"class.std::vector.113", %"class.arrow::compute::OutputType", i8, i64 }
%"class.std::vector.113" = type { %"struct.std::_Vector_base.114" }
%"struct.std::_Vector_base.114" = type { %"struct.std::_Vector_base<arrow::compute::InputType, std::allocator<arrow::compute::InputType>>::_Vector_impl" }
%"struct.std::_Vector_base<arrow::compute::InputType, std::allocator<arrow::compute::InputType>>::_Vector_impl" = type { %"struct.std::_Vector_base<arrow::compute::InputType, std::allocator<arrow::compute::InputType>>::_Vector_impl_data" }
%"struct.std::_Vector_base<arrow::compute::InputType, std::allocator<arrow::compute::InputType>>::_Vector_impl_data" = type { ptr, ptr, ptr }

; Function Attrs: mustprogress nounwind uwtable
define linkonce_odr noundef ptr @_ZNKSt12__shared_ptrIN5arrow7compute11TypeMatcherELN9__gnu_cxx12_Lock_policyE2EE3getEv(ptr noundef nonnull align 8 dereferenceable(16) %this) #2 comdat align 2 {
entry:
  %this.addr = alloca ptr, align 8
  store ptr %this, ptr %this.addr, align 8
  %this1 = load ptr, ptr %this.addr, align 8
  %_M_ptr = getelementptr inbounds %"class.std::__shared_ptr.34", ptr %this1, i32 0, i32 0
  %0 = load ptr, ptr %_M_ptr, align 8
  ret ptr %0
}

; Function Attrs: mustprogress nounwind uwtable
define linkonce_odr noundef ptr @_ZNKSt12__shared_ptrIN5arrow8DataTypeELN9__gnu_cxx12_Lock_policyE2EE3getEv(ptr noundef nonnull align 8 dereferenceable(16) %this) #2 comdat align 2 {
entry:
  %this.addr = alloca ptr, align 8
  store ptr %this, ptr %this.addr, align 8
  %this1 = load ptr, ptr %this.addr, align 8
  %_M_ptr = getelementptr inbounds %"class.std::__shared_ptr.73", ptr %this1, i32 0, i32 0
  %0 = load ptr, ptr %_M_ptr, align 8
  ret ptr %0
}

; Function Attrs: mustprogress nounwind uwtable
define linkonce_odr noundef ptr @_ZNKSt19__shared_ptr_accessIN5arrow7compute11TypeMatcherELN9__gnu_cxx12_Lock_policyE2ELb0ELb0EE6_M_getEv(ptr noundef nonnull align 1 dereferenceable(1) %this) #2 comdat align 2 {
entry:
  %this.addr = alloca ptr, align 8
  store ptr %this, ptr %this.addr, align 8
  %this1 = load ptr, ptr %this.addr, align 8
  %call = call noundef ptr @_ZNKSt12__shared_ptrIN5arrow7compute11TypeMatcherELN9__gnu_cxx12_Lock_policyE2EE3getEv(ptr noundef nonnull align 8 dereferenceable(16) %this1) #12
  ret ptr %call
}

; Function Attrs: mustprogress nounwind uwtable
define linkonce_odr noundef ptr @_ZNKSt19__shared_ptr_accessIN5arrow8DataTypeELN9__gnu_cxx12_Lock_policyE2ELb0ELb0EE6_M_getEv(ptr noundef nonnull align 1 dereferenceable(1) %this) #2 comdat align 2 {
entry:
  %this.addr = alloca ptr, align 8
  store ptr %this, ptr %this.addr, align 8
  %this1 = load ptr, ptr %this.addr, align 8
  %call = call noundef ptr @_ZNKSt12__shared_ptrIN5arrow8DataTypeELN9__gnu_cxx12_Lock_policyE2EE3getEv(ptr noundef nonnull align 8 dereferenceable(16) %this1) #12
  ret ptr %call
}

; Function Attrs: mustprogress nounwind uwtable
define linkonce_odr noundef nonnull align 8 dereferenceable(8) ptr @_ZNKSt19__shared_ptr_accessIN5arrow7compute11TypeMatcherELN9__gnu_cxx12_Lock_policyE2ELb0ELb0EEdeEv(ptr noundef nonnull align 1 dereferenceable(1) %this) #2 comdat align 2 {
entry:
  %this.addr = alloca ptr, align 8
  store ptr %this, ptr %this.addr, align 8
  %this1 = load ptr, ptr %this.addr, align 8
  br label %do.body

do.body:                                          ; preds = %entry
  br label %do.cond

do.cond:                                          ; preds = %do.body
  br label %do.end

do.end:                                           ; preds = %do.cond
  %call = call noundef ptr @_ZNKSt19__shared_ptr_accessIN5arrow7compute11TypeMatcherELN9__gnu_cxx12_Lock_policyE2ELb0ELb0EE6_M_getEv(ptr noundef nonnull align 1 dereferenceable(1) %this1) #12
  ret ptr %call
}

; Function Attrs: mustprogress nounwind uwtable
define linkonce_odr noundef ptr @_ZNKSt19__shared_ptr_accessIN5arrow7compute11TypeMatcherELN9__gnu_cxx12_Lock_policyE2ELb0ELb0EEptEv(ptr noundef nonnull align 1 dereferenceable(1) %this) #2 comdat align 2 {
entry:
  %this.addr = alloca ptr, align 8
  store ptr %this, ptr %this.addr, align 8
  %this1 = load ptr, ptr %this.addr, align 8
  %call = call noundef ptr @_ZNKSt19__shared_ptr_accessIN5arrow7compute11TypeMatcherELN9__gnu_cxx12_Lock_policyE2ELb0ELb0EE6_M_getEv(ptr noundef nonnull align 1 dereferenceable(1) %this1) #12
  ret ptr %call
}

; Function Attrs: mustprogress nounwind uwtable
define linkonce_odr noundef nonnull align 8 dereferenceable(72) ptr @_ZNKSt19__shared_ptr_accessIN5arrow8DataTypeELN9__gnu_cxx12_Lock_policyE2ELb0ELb0EEdeEv(ptr noundef nonnull align 1 dereferenceable(1) %this) #2 comdat align 2 {
entry:
  %this.addr = alloca ptr, align 8
  store ptr %this, ptr %this.addr, align 8
  %this1 = load ptr, ptr %this.addr, align 8
  br label %do.body

do.body:                                          ; preds = %entry
  br label %do.cond

do.cond:                                          ; preds = %do.body
  br label %do.end

do.end:                                           ; preds = %do.cond
  %call = call noundef ptr @_ZNKSt19__shared_ptr_accessIN5arrow8DataTypeELN9__gnu_cxx12_Lock_policyE2ELb0ELb0EE6_M_getEv(ptr noundef nonnull align 1 dereferenceable(1) %this1) #12
  ret ptr %call
}

; Function Attrs: mustprogress nounwind uwtable
define linkonce_odr noundef ptr @_ZNKSt19__shared_ptr_accessIN5arrow8DataTypeELN9__gnu_cxx12_Lock_policyE2ELb0ELb0EEptEv(ptr noundef nonnull align 1 dereferenceable(1) %this) #2 comdat align 2 {
entry:
  %this.addr = alloca ptr, align 8
  store ptr %this, ptr %this.addr, align 8
  %this1 = load ptr, ptr %this.addr, align 8
  %call = call noundef ptr @_ZNKSt19__shared_ptr_accessIN5arrow8DataTypeELN9__gnu_cxx12_Lock_policyE2ELb0ELb0EE6_M_getEv(ptr noundef nonnull align 1 dereferenceable(1) %this1) #12
  ret ptr %call
}

; Function Attrs: mustprogress uwtable
define noundef zeroext i1 @_ZNK5arrow7compute9InputType6EqualsERKS1_(ptr noundef nonnull align 8 dereferenceable(40) %this, ptr noundef nonnull align 8 dereferenceable(40) %other) #0 align 2 {
entry:
  %retval = alloca i1, align 1
  %this.addr = alloca ptr, align 8
  %other.addr = alloca ptr, align 8
  store ptr %this, ptr %this.addr, align 8
  store ptr %other, ptr %other.addr, align 8
  %this1 = load ptr, ptr %this.addr, align 8
  %0 = load ptr, ptr %other.addr, align 8
  %cmp = icmp eq ptr %this1, %0
  br i1 %cmp, label %if.then, label %if.end

if.then:                                          ; preds = %entry
  store i1 true, ptr %retval, align 1
  br label %return

if.end:                                           ; preds = %entry
  %kind_ = getelementptr inbounds %"class.arrow::compute::InputType", ptr %this1, i32 0, i32 0
  %1 = load i32, ptr %kind_, align 8
  %2 = load ptr, ptr %other.addr, align 8
  %kind_2 = getelementptr inbounds %"class.arrow::compute::InputType", ptr %2, i32 0, i32 0
  %3 = load i32, ptr %kind_2, align 8
  %cmp3 = icmp ne i32 %1, %3
  br i1 %cmp3, label %if.then4, label %if.end5

if.then4:                                         ; preds = %if.end
  store i1 false, ptr %retval, align 1
  br label %return

if.end5:                                          ; preds = %if.end
  %kind_6 = getelementptr inbounds %"class.arrow::compute::InputType", ptr %this1, i32 0, i32 0
  %4 = load i32, ptr %kind_6, align 8
  switch i32 %4, label %sw.default [
    i32 0, label %sw.bb
    i32 1, label %sw.bb7
    i32 2, label %sw.bb11
  ]

sw.bb:                                            ; preds = %if.end5
  store i1 true, ptr %retval, align 1
  br label %return

sw.bb7:                                           ; preds = %if.end5
  %type_ = getelementptr inbounds %"class.arrow::compute::InputType", ptr %this1, i32 0, i32 1
  %call = call noundef ptr @_ZNKSt19__shared_ptr_accessIN5arrow8DataTypeELN9__gnu_cxx12_Lock_policyE2ELb0ELb0EEptEv(ptr noundef nonnull align 1 dereferenceable(1) %type_) #12
  %5 = load ptr, ptr %other.addr, align 8
  %type_8 = getelementptr inbounds %"class.arrow::compute::InputType", ptr %5, i32 0, i32 1
  %call9 = call noundef nonnull align 8 dereferenceable(72) ptr @_ZNKSt19__shared_ptr_accessIN5arrow8DataTypeELN9__gnu_cxx12_Lock_policyE2ELb0ELb0EEdeEv(ptr noundef nonnull align 1 dereferenceable(1) %type_8) #12
  %call10 = call noundef zeroext i1 @_ZNK5arrow8DataType6EqualsERKS0_b(ptr noundef nonnull align 8 dereferenceable(72) %call, ptr noundef nonnull align 8 dereferenceable(72) %call9, i1 noundef zeroext false)
  store i1 %call10, ptr %retval, align 1
  br label %return

sw.bb11:                                          ; preds = %if.end5
  %type_matcher_ = getelementptr inbounds %"class.arrow::compute::InputType", ptr %this1, i32 0, i32 2
  %call12 = call noundef ptr @_ZNKSt19__shared_ptr_accessIN5arrow7compute11TypeMatcherELN9__gnu_cxx12_Lock_policyE2ELb0ELb0EEptEv(ptr noundef nonnull align 1 dereferenceable(1) %type_matcher_) #12
  %6 = load ptr, ptr %other.addr, align 8
  %type_matcher_13 = getelementptr inbounds %"class.arrow::compute::InputType", ptr %6, i32 0, i32 2
  %call14 = call noundef nonnull align 8 dereferenceable(8) ptr @_ZNKSt19__shared_ptr_accessIN5arrow7compute11TypeMatcherELN9__gnu_cxx12_Lock_policyE2ELb0ELb0EEdeEv(ptr noundef nonnull align 1 dereferenceable(1) %type_matcher_13) #12
  %vtable = load ptr, ptr %call12, align 8
  %vfn = getelementptr inbounds ptr, ptr %vtable, i64 4
  %7 = load ptr, ptr %vfn, align 8
  %call15 = call noundef zeroext i1 %7(ptr noundef nonnull align 8 dereferenceable(8) %call12, ptr noundef nonnull align 8 dereferenceable(8) %call14)
  store i1 %call15, ptr %retval, align 1
  br label %return

sw.default:                                       ; preds = %if.end5
  store i1 false, ptr %retval, align 1
  br label %return

return:                                           ; preds = %sw.default, %sw.bb11, %sw.bb7, %sw.bb, %if.then4, %if.then
  %8 = load i1, ptr %retval, align 1
  ret i1 %8
}

; Function Attrs: mustprogress nounwind uwtable
define linkonce_odr noundef nonnull align 8 dereferenceable(40) ptr @_ZNKSt6vectorIN5arrow7compute9InputTypeESaIS2_EEixEm(ptr noundef nonnull align 8 dereferenceable(24) %this, i64 noundef %__n) #2 comdat align 2 {
entry:
  %this.addr = alloca ptr, align 8
  %__n.addr = alloca i64, align 8
  store ptr %this, ptr %this.addr, align 8
  store i64 %__n, ptr %__n.addr, align 8
  %this1 = load ptr, ptr %this.addr, align 8
  %_M_impl = getelementptr inbounds %"struct.std::_Vector_base.114", ptr %this1, i32 0, i32 0
  %_M_start = getelementptr inbounds %"struct.std::_Vector_base<arrow::compute::InputType, std::allocator<arrow::compute::InputType>>::_Vector_impl_data", ptr %_M_impl, i32 0, i32 0
  %0 = load ptr, ptr %_M_start, align 8
  %1 = load i64, ptr %__n.addr, align 8
  %add.ptr = getelementptr inbounds %"class.arrow::compute::InputType", ptr %0, i64 %1
  ret ptr %add.ptr
}

; Function Attrs: mustprogress nounwind uwtable
define linkonce_odr noundef i64 @_ZNKSt6vectorIN5arrow7compute9InputTypeESaIS2_EE4sizeEv(ptr noundef nonnull align 8 dereferenceable(24) %this) #2 comdat align 2 {
entry:
  %this.addr = alloca ptr, align 8
  store ptr %this, ptr %this.addr, align 8
  %this1 = load ptr, ptr %this.addr, align 8
  %_M_impl = getelementptr inbounds %"struct.std::_Vector_base.114", ptr %this1, i32 0, i32 0
  %_M_finish = getelementptr inbounds %"struct.std::_Vector_base<arrow::compute::InputType, std::allocator<arrow::compute::InputType>>::_Vector_impl_data", ptr %_M_impl, i32 0, i32 1
  %0 = load ptr, ptr %_M_finish, align 8
  %_M_impl2 = getelementptr inbounds %"struct.std::_Vector_base.114", ptr %this1, i32 0, i32 0
  %_M_start = getelementptr inbounds %"struct.std::_Vector_base<arrow::compute::InputType, std::allocator<arrow::compute::InputType>>::_Vector_impl_data", ptr %_M_impl2, i32 0, i32 0
  %1 = load ptr, ptr %_M_start, align 8
  %sub.ptr.lhs.cast = ptrtoint ptr %0 to i64
  %sub.ptr.rhs.cast = ptrtoint ptr %1 to i64
  %sub.ptr.sub = sub i64 %sub.ptr.lhs.cast, %sub.ptr.rhs.cast
  %sub.ptr.div = sdiv exact i64 %sub.ptr.sub, 40
  ret i64 %sub.ptr.div
}

; Function Attrs: mustprogress uwtable
define noundef zeroext i1 @_ZNK5arrow7compute15KernelSignature6EqualsERKS1_(ptr noundef nonnull align 8 dereferenceable(96) %this, ptr noundef nonnull align 8 dereferenceable(96) %other) #0 align 2 {
entry:
  %retval = alloca i1, align 1
  %this.addr = alloca ptr, align 8
  %other.addr = alloca ptr, align 8
  %i = alloca i64, align 8
  store ptr %this, ptr %this.addr, align 8
  store ptr %other, ptr %other.addr, align 8
  %this1 = load ptr, ptr %this.addr, align 8
  %is_varargs_ = getelementptr inbounds %"class.arrow::compute::KernelSignature", ptr %this1, i32 0, i32 2
  %0 = load i8, ptr %is_varargs_, align 8
  %tobool = trunc i8 %0 to i1
  %conv = zext i1 %tobool to i32
  %1 = load ptr, ptr %other.addr, align 8
  %is_varargs_2 = getelementptr inbounds %"class.arrow::compute::KernelSignature", ptr %1, i32 0, i32 2
  %2 = load i8, ptr %is_varargs_2, align 8
  %tobool3 = trunc i8 %2 to i1
  %conv4 = zext i1 %tobool3 to i32
  %cmp = icmp ne i32 %conv, %conv4
  br i1 %cmp, label %if.then, label %if.end

if.then:                                          ; preds = %entry
  store i1 false, ptr %retval, align 1
  br label %return

if.end:                                           ; preds = %entry
  %in_types_ = getelementptr inbounds %"class.arrow::compute::KernelSignature", ptr %this1, i32 0, i32 0
  %call = call noundef i64 @_ZNKSt6vectorIN5arrow7compute9InputTypeESaIS2_EE4sizeEv(ptr noundef nonnull align 8 dereferenceable(24) %in_types_) #12
  %3 = load ptr, ptr %other.addr, align 8
  %in_types_5 = getelementptr inbounds %"class.arrow::compute::KernelSignature", ptr %3, i32 0, i32 0
  %call6 = call noundef i64 @_ZNKSt6vectorIN5arrow7compute9InputTypeESaIS2_EE4sizeEv(ptr noundef nonnull align 8 dereferenceable(24) %in_types_5) #12
  %cmp7 = icmp ne i64 %call, %call6
  br i1 %cmp7, label %if.then8, label %if.end9

if.then8:                                         ; preds = %if.end
  store i1 false, ptr %retval, align 1
  br label %return

if.end9:                                          ; preds = %if.end
  store i64 0, ptr %i, align 8
  br label %for.cond

for.cond:                                         ; preds = %for.inc, %if.end9
  %4 = load i64, ptr %i, align 8
  %in_types_10 = getelementptr inbounds %"class.arrow::compute::KernelSignature", ptr %this1, i32 0, i32 0
  %call11 = call noundef i64 @_ZNKSt6vectorIN5arrow7compute9InputTypeESaIS2_EE4sizeEv(ptr noundef nonnull align 8 dereferenceable(24) %in_types_10) #12
  %cmp12 = icmp ult i64 %4, %call11
  br i1 %cmp12, label %for.body, label %for.end

for.body:                                         ; preds = %for.cond
  %in_types_13 = getelementptr inbounds %"class.arrow::compute::KernelSignature", ptr %this1, i32 0, i32 0
  %5 = load i64, ptr %i, align 8
  %call14 = call noundef nonnull align 8 dereferenceable(40) ptr @_ZNKSt6vectorIN5arrow7compute9InputTypeESaIS2_EEixEm(ptr noundef nonnull align 8 dereferenceable(24) %in_types_13, i64 noundef %5) #12
  %6 = load ptr, ptr %other.addr, align 8
  %in_types_15 = getelementptr inbounds %"class.arrow::compute::KernelSignature", ptr %6, i32 0, i32 0
  %7 = load i64, ptr %i, align 8
  %call16 = call noundef nonnull align 8 dereferenceable(40) ptr @_ZNKSt6vectorIN5arrow7compute9InputTypeESaIS2_EEixEm(ptr noundef nonnull align 8 dereferenceable(24) %in_types_15, i64 noundef %7) #12
  %call17 = call noundef zeroext i1 @_ZNK5arrow7compute9InputType6EqualsERKS1_(ptr noundef nonnull align 8 dereferenceable(40) %call14, ptr noundef nonnull align 8 dereferenceable(40) %call16)
  br i1 %call17, label %if.end19, label %if.then18

if.then18:                                        ; preds = %for.body
  store i1 false, ptr %retval, align 1
  br label %return

if.end19:                                         ; preds = %for.body
  br label %for.inc

for.inc:                                          ; preds = %if.end19
  %8 = load i64, ptr %i, align 8
  %inc = add i64 %8, 1
  store i64 %inc, ptr %i, align 8
  br label %for.cond, !llvm.loop !23

for.end:                                          ; preds = %for.cond
  store i1 true, ptr %retval, align 1
  br label %return

return:                                           ; preds = %for.end, %if.then18, %if.then8, %if.then
  %9 = load i1, ptr %retval, align 1
  ret i1 %9
}