; Function Attrs: mustprogress uwtable
define noundef zeroext i1 @_ZNK5arrow7compute15KernelSignature6EqualsERKS1_(ptr nocapture noundef nonnull readonly align 8 dereferenceable(96) %this, ptr nocapture noundef nonnull readonly align 8 dereferenceable(96) %other) local_unnamed_addr #0 align 2 {
entry:
  %is_varargs_ = getelementptr inbounds i8, ptr %this, i64 80
  %0 = load i8, ptr %is_varargs_, align 8
  %is_varargs_2 = getelementptr inbounds i8, ptr %other, i64 80
  %1 = load i8, ptr %is_varargs_2, align 8
  %2 = xor i8 %1, %0
  %3 = and i8 %2, 1
  %cmp.not = icmp eq i8 %3, 0
  br i1 %cmp.not, label %if.end, label %return

if.end:                                           ; preds = %entry
  %_M_finish.i = getelementptr inbounds i8, ptr %this, i64 8
  %4 = load ptr, ptr %_M_finish.i, align 8
  %5 = load ptr, ptr %this, align 8
  %sub.ptr.lhs.cast.i = ptrtoint ptr %4 to i64
  %sub.ptr.rhs.cast.i = ptrtoint ptr %5 to i64
  %sub.ptr.sub.i = sub i64 %sub.ptr.lhs.cast.i, %sub.ptr.rhs.cast.i
  %_M_finish.i6 = getelementptr inbounds i8, ptr %other, i64 8
  %6 = load ptr, ptr %_M_finish.i6, align 8
  %7 = load ptr, ptr %other, align 8
  %sub.ptr.lhs.cast.i7 = ptrtoint ptr %6 to i64
  %sub.ptr.rhs.cast.i8 = ptrtoint ptr %7 to i64
  %sub.ptr.sub.i9 = sub i64 %sub.ptr.lhs.cast.i7, %sub.ptr.rhs.cast.i8
  %cmp7.not = icmp eq i64 %sub.ptr.sub.i, %sub.ptr.sub.i9
  br i1 %cmp7.not, label %for.cond.preheader, label %return

for.cond.preheader:                               ; preds = %if.end
  %cmp1225.not = icmp eq ptr %4, %5
  br i1 %cmp1225.not, label %return, label %for.body

for.body:                                         ; preds = %for.cond.preheader, %for.inc
  %8 = phi ptr [ %18, %for.inc ], [ %5, %for.cond.preheader ]
  %i.026 = phi i64 [ %inc, %for.inc ], [ 0, %for.cond.preheader ]
  %add.ptr.i = getelementptr inbounds %"class.arrow::compute::InputType", ptr %8, i64 %i.026
  %9 = load ptr, ptr %other, align 8
  %add.ptr.i16 = getelementptr inbounds %"class.arrow::compute::InputType", ptr %9, i64 %i.026
  %cmp.i = icmp eq ptr %8, %9
  br i1 %cmp.i, label %for.inc, label %if.end.i

if.end.i:                                         ; preds = %for.body
  %10 = load i32, ptr %add.ptr.i, align 8
  %11 = load i32, ptr %add.ptr.i16, align 8
  %cmp3.not.i = icmp eq i32 %10, %11
  br i1 %cmp3.not.i, label %if.end5.i, label %return

if.end5.i:                                        ; preds = %if.end.i
  switch i32 %10, label %return [
    i32 0, label %for.inc
    i32 1, label %_ZNK5arrow7compute9InputType6EqualsERKS1_.exit
    i32 2, label %sw.bb11.i
  ]

sw.bb11.i:                                        ; preds = %if.end5.i
  %type_matcher_.i = getelementptr inbounds i8, ptr %add.ptr.i, i64 24
  %12 = load ptr, ptr %type_matcher_.i, align 8
  %type_matcher_13.i = getelementptr inbounds i8, ptr %add.ptr.i16, i64 24
  %13 = load ptr, ptr %type_matcher_13.i, align 8
  %vtable.i = load ptr, ptr %12, align 8
  %vfn.i = getelementptr inbounds i8, ptr %vtable.i, i64 32
  %14 = load ptr, ptr %vfn.i, align 8
  %call15.i = tail call noundef zeroext i1 %14(ptr noundef nonnull align 8 dereferenceable(8) %12, ptr noundef nonnull align 8 dereferenceable(8) %13)
  br i1 %call15.i, label %for.inc, label %return

_ZNK5arrow7compute9InputType6EqualsERKS1_.exit:   ; preds = %if.end5.i
  %type_.i = getelementptr inbounds i8, ptr %add.ptr.i, i64 8
  %15 = load ptr, ptr %type_.i, align 8
  %type_8.i = getelementptr inbounds i8, ptr %add.ptr.i16, i64 8
  %16 = load ptr, ptr %type_8.i, align 8
  %call10.i = tail call noundef zeroext i1 @_ZNK5arrow8DataType6EqualsERKS0_b(ptr noundef nonnull align 8 dereferenceable(72) %15, ptr noundef nonnull align 8 dereferenceable(72) %16, i1 noundef zeroext false)
  br i1 %call10.i, label %for.inc, label %return

for.inc:                                          ; preds = %if.end5.i, %for.body, %sw.bb11.i, %_ZNK5arrow7compute9InputType6EqualsERKS1_.exit
  %inc = add nuw i64 %i.026, 1
  %17 = load ptr, ptr %_M_finish.i, align 8
  %18 = load ptr, ptr %this, align 8
  %sub.ptr.lhs.cast.i12 = ptrtoint ptr %17 to i64
  %sub.ptr.rhs.cast.i13 = ptrtoint ptr %18 to i64
  %sub.ptr.sub.i14 = sub i64 %sub.ptr.lhs.cast.i12, %sub.ptr.rhs.cast.i13
  %sub.ptr.div.i15 = sdiv exact i64 %sub.ptr.sub.i14, 40
  %cmp12 = icmp ult i64 %inc, %sub.ptr.div.i15
  br i1 %cmp12, label %for.body, label %return, !llvm.loop !105

return:                                           ; preds = %_ZNK5arrow7compute9InputType6EqualsERKS1_.exit, %for.inc, %sw.bb11.i, %if.end.i, %if.end5.i, %for.cond.preheader, %if.end, %entry
  %retval.0 = phi i1 [ false, %entry ], [ false, %if.end ], [ true, %for.cond.preheader ], [ false, %_ZNK5arrow7compute9InputType6EqualsERKS1_.exit ], [ true, %for.inc ], [ false, %sw.bb11.i ], [ false, %if.end.i ], [ false, %if.end5.i ]
  ret i1 %retval.0
}